target datalayout = "e-m:e-p270:32:32-p271:32:32-p272:64:64-i64:64-i128:128-f80:128-n8:16:32:64-S128"
target triple = "x86_64-pc-linux-gnu"

@_ZZN2cvL25getDefaultAllocatorMatRefEvE14g_matAllocator = internal global ptr null, align 8
@_ZGVZN2cvL25getDefaultAllocatorMatRefEvE14g_matAllocator = internal global i64 0, align 8

; Function Attrs: mustprogress uwtable
define internal noundef nonnull align 8 dereferenceable(8) ptr @_ZN2cvL25getDefaultAllocatorMatRefEv() #1 personality ptr @__gxx_personality_v0 {
  %1 = alloca ptr, align 8
  %2 = alloca i32, align 4
  %3 = load atomic i8, ptr @_ZGVZN2cvL25getDefaultAllocatorMatRefEvE14g_matAllocator acquire, align 8
  %4 = icmp eq i8 %3, 0
  br i1 %4, label %5, label %11, !prof !58

5:                                                ; preds = %0
  %6 = call i32 @__cxa_guard_acquire(ptr @_ZGVZN2cvL25getDefaultAllocatorMatRefEvE14g_matAllocator) #7
  %7 = icmp ne i32 %6, 0
  br i1 %7, label %8, label %11

8:                                                ; preds = %5
  %9 = invoke noundef ptr @_ZN2cv3Mat15getStdAllocatorEv()
          to label %10 unwind label %12

10:                                               ; preds = %8
  store ptr %9, ptr @_ZZN2cvL25getDefaultAllocatorMatRefEvE14g_matAllocator, align 8, !tbaa !3
  call void @__cxa_guard_release(ptr @_ZGVZN2cvL25getDefaultAllocatorMatRefEvE14g_matAllocator) #7
  br label %11

11:                                               ; preds = %10, %5, %0
  ret ptr @_ZZN2cvL25getDefaultAllocatorMatRefEvE14g_matAllocator

12:                                               ; preds = %8
  %13 = landingpad { ptr, i32 }
          cleanup
  %14 = extractvalue { ptr, i32 } %13, 0
  store ptr %14, ptr %1, align 8
  %15 = extractvalue { ptr, i32 } %13, 1
  store i32 %15, ptr %2, align 4
  call void @__cxa_guard_abort(ptr @_ZGVZN2cvL25getDefaultAllocatorMatRefEvE14g_matAllocator) #7
  br label %16

16:                                               ; preds = %12
  %17 = load ptr, ptr %1, align 8
  %18 = load i32, ptr %2, align 4
  %19 = insertvalue { ptr, i32 } poison, ptr %17, 0
  %20 = insertvalue { ptr, i32 } %19, i32 %18, 1
  resume { ptr, i32 } %20
}

; Function Attrs: mustprogress uwtable
define void @_ZN2cv3Mat19setDefaultAllocatorEPNS_12MatAllocatorE(ptr noundef %0) #1 align 2 {
  %2 = alloca ptr, align 8
  store ptr %0, ptr %2, align 8, !tbaa !3
  %3 = load ptr, ptr %2, align 8, !tbaa !3
  %4 = call noundef nonnull align 8 dereferenceable(8) ptr @_ZN2cvL25getDefaultAllocatorMatRefEv()
  store ptr %3, ptr %4, align 8, !tbaa !3
  ret void
}