; Function Attrs: mustprogress uwtable
define void @_ZN2cv3Mat19setDefaultAllocatorEPNS_12MatAllocatorE(ptr noundef %0) local_unnamed_addr #1 align 2 personality ptr @__gxx_personality_v0 {
  %2 = load atomic i8, ptr @_ZGVZN2cvL25getDefaultAllocatorMatRefEvE14g_matAllocator acquire, align 8
  %3 = icmp eq i8 %2, 0
  br i1 %3, label %4, label %_ZN2cvL25getDefaultAllocatorMatRefEv.exit, !prof !47

4:                                                ; preds = %1
  %5 = tail call i32 @__cxa_guard_acquire(ptr nonnull @_ZGVZN2cvL25getDefaultAllocatorMatRefEvE14g_matAllocator) #24
  %.not.i = icmp eq i32 %5, 0
  br i1 %.not.i, label %_ZN2cvL25getDefaultAllocatorMatRefEv.exit, label %6

6:                                                ; preds = %4
  %7 = invoke noundef ptr @_ZN2cv3Mat15getStdAllocatorEv()
          to label %8 unwind label %9

8:                                                ; preds = %6
  store ptr %7, ptr @_ZZN2cvL25getDefaultAllocatorMatRefEvE14g_matAllocator, align 8, !tbaa !48
  tail call void @__cxa_guard_release(ptr nonnull @_ZGVZN2cvL25getDefaultAllocatorMatRefEvE14g_matAllocator) #24
  br label %_ZN2cvL25getDefaultAllocatorMatRefEv.exit

9:                                                ; preds = %6
  %10 = landingpad { ptr, i32 }
          cleanup
  tail call void @__cxa_guard_abort(ptr nonnull @_ZGVZN2cvL25getDefaultAllocatorMatRefEvE14g_matAllocator) #24
  resume { ptr, i32 } %10

_ZN2cvL25getDefaultAllocatorMatRefEv.exit:        ; preds = %1, %4, %8
  store ptr %0, ptr @_ZZN2cvL25getDefaultAllocatorMatRefEvE14g_matAllocator, align 8, !tbaa !48
  ret void
}